target datalayout = "e-m:e-p270:32:32-p271:32:32-p272:64:64-i64:64-i128:128-f80:128-n8:16:32:64-S128"
target triple = "x86_64-pc-linux-gnu"

@the_repository = external global ptr, align 8
@.str.8 = private unnamed_addr constant [153 x i8] c"ambiguous argument '%s': both revision and filename\0AUse '--' to separate paths from revisions, like this:\0A'git <command> [<revision>...] -- [<file>...]'\00", align 1
@inside_git_dir = internal global i32 -1, align 4
@inside_work_tree = internal global i32 -1, align 4

; Function Attrs: nounwind uwtable
define dso_local i32 @is_inside_git_dir() #0 {
  %1 = load i32, ptr @inside_git_dir, align 4, !tbaa !9
  %2 = icmp slt i32 %1, 0
  br i1 %2, label %3, label %7

3:                                                ; preds = %0
  %4 = load ptr, ptr @the_repository, align 8, !tbaa !14
  %5 = call ptr @repo_get_git_dir(ptr noundef %4)
  %6 = call i32 @is_inside_dir(ptr noundef %5)
  store i32 %6, ptr @inside_git_dir, align 4, !tbaa !9
  br label %7

7:                                                ; preds = %3, %0
  %8 = load i32, ptr @inside_git_dir, align 4, !tbaa !9
  ret i32 %8
}

; Function Attrs: nounwind uwtable
define dso_local i32 @is_inside_work_tree() #0 {
  %1 = load i32, ptr @inside_work_tree, align 4, !tbaa !9
  %2 = icmp slt i32 %1, 0
  br i1 %2, label %3, label %7

3:                                                ; preds = %0
  %4 = load ptr, ptr @the_repository, align 8, !tbaa !14
  %5 = call ptr @repo_get_work_tree(ptr noundef %4)
  %6 = call i32 @is_inside_dir(ptr noundef %5)
  store i32 %6, ptr @inside_work_tree, align 4, !tbaa !9
  br label %7

7:                                                ; preds = %3, %0
  %8 = load i32, ptr @inside_work_tree, align 4, !tbaa !9
  ret i32 %8
}

; Function Attrs: nounwind uwtable
define dso_local void @verify_non_filename(ptr noundef %0, ptr noundef %1) #0 {
  %3 = alloca ptr, align 8
  %4 = alloca ptr, align 8
  store ptr %0, ptr %3, align 8, !tbaa !4
  store ptr %1, ptr %4, align 8, !tbaa !4
  %5 = call i32 @is_inside_work_tree()
  %6 = icmp ne i32 %5, 0
  br i1 %6, label %7, label %10

7:                                                ; preds = %2
  %8 = call i32 @is_inside_git_dir()
  %9 = icmp ne i32 %8, 0
  br i1 %9, label %10, label %11

10:                                               ; preds = %7, %2
  br label %26

11:                                               ; preds = %7
  %12 = load ptr, ptr %4, align 8, !tbaa !4
  %13 = load i8, ptr %12, align 1, !tbaa !13
  %14 = sext i8 %13 to i32
  %15 = icmp eq i32 %14, 45
  br i1 %15, label %16, label %17

16:                                               ; preds = %11
  br label %26

17:                                               ; preds = %11
  %18 = load ptr, ptr %3, align 8, !tbaa !4
  %19 = load ptr, ptr %4, align 8, !tbaa !4
  %20 = call i32 @check_filename(ptr noundef %18, ptr noundef %19)
  %21 = icmp ne i32 %20, 0
  br i1 %21, label %23, label %22

22:                                               ; preds = %17
  br label %26

23:                                               ; preds = %17
  %24 = call ptr @_(ptr noundef @.str.8)
  %25 = load ptr, ptr %4, align 8, !tbaa !4
  call void (ptr, ...) @die(ptr noundef %24, ptr noundef %25) #15
  unreachable

26:                                               ; preds = %22, %16, %10
  ret void
}