; Function Attrs: nounwind uwtable
define dso_local void @verify_non_filename(ptr noundef %0, ptr noundef %1) local_unnamed_addr #0 {
  %3 = load i32, ptr @inside_work_tree, align 4, !tbaa !7
  %4 = icmp slt i32 %3, 0
  br i1 %4, label %5, label %is_inside_work_tree.exit

5:                                                ; preds = %2
  %6 = load ptr, ptr @the_repository, align 8, !tbaa !9
  %7 = tail call ptr @repo_get_work_tree(ptr noundef %6) #25
  %8 = tail call i32 @is_inside_dir(ptr noundef %7) #25
  store i32 %8, ptr @inside_work_tree, align 4, !tbaa !7
  br label %is_inside_work_tree.exit

is_inside_work_tree.exit:                         ; preds = %2, %5
  %9 = phi i32 [ %8, %5 ], [ %3, %2 ]
  %.not = icmp eq i32 %9, 0
  br i1 %.not, label %25, label %10

10:                                               ; preds = %is_inside_work_tree.exit
  %11 = load i32, ptr @inside_git_dir, align 4, !tbaa !7
  %12 = icmp slt i32 %11, 0
  br i1 %12, label %13, label %is_inside_git_dir.exit

13:                                               ; preds = %10
  %14 = load ptr, ptr @the_repository, align 8, !tbaa !9
  %15 = tail call ptr @repo_get_git_dir(ptr noundef %14) #25
  %16 = tail call i32 @is_inside_dir(ptr noundef %15) #25
  store i32 %16, ptr @inside_git_dir, align 4, !tbaa !7
  br label %is_inside_git_dir.exit

is_inside_git_dir.exit:                           ; preds = %10, %13
  %17 = phi i32 [ %16, %13 ], [ %11, %10 ]
  %.not4 = icmp eq i32 %17, 0
  br i1 %.not4, label %18, label %25

18:                                               ; preds = %is_inside_git_dir.exit
  %19 = load i8, ptr %1, align 1, !tbaa !4
  %20 = icmp eq i8 %19, 45
  br i1 %20, label %25, label %21

21:                                               ; preds = %18
  %22 = tail call i32 @check_filename(ptr noundef %0, ptr noundef nonnull %1)
  %.not5 = icmp eq i32 %22, 0
  br i1 %.not5, label %25, label %23

23:                                               ; preds = %21
  %24 = tail call fastcc ptr @_(ptr noundef nonnull @.str.8)
  tail call void (ptr, ...) @die(ptr noundef %24, ptr noundef nonnull %1) #26
  unreachable

25:                                               ; preds = %21, %18, %is_inside_work_tree.exit, %is_inside_git_dir.exit
  ret void
}